target datalayout = "e-m:e-p270:32:32-p271:32:32-p272:64:64-i64:64-i128:128-f80:128-n8:16:32:64-S128"
target triple = "x86_64-pc-linux-gnu"

%struct.darktable_t = type { %struct.dt_codepath_t, i32, i32, ptr, ptr, ptr, ptr, ptr, ptr, ptr, ptr, ptr, ptr, ptr, ptr, ptr, ptr, ptr, ptr, ptr, ptr, ptr, ptr, ptr, ptr, ptr, ptr, ptr, ptr, ptr, [64 x %struct.dt_pthread_mutex_t], %struct.dt_pthread_mutex_t, %struct.dt_pthread_mutex_t, %struct.dt_pthread_mutex_t, %struct.dt_pthread_mutex_t, %struct.dt_pthread_mutex_t, ptr, ptr, ptr, ptr, ptr, ptr, ptr, ptr, ptr, ptr, ptr, ptr, ptr, %struct.dt_lua_state_t, ptr, double, ptr, i32, [47 x i32], i32, i32, ptr, ptr, %struct.dt_sys_resources_t, %struct.dt_backthumb_t, %struct.dt_gimp_t }
%struct.dt_codepath_t = type { i8, [3 x i8] }
%struct.dt_pthread_mutex_t = type { %union.pthread_mutex_t }
%union.pthread_mutex_t = type { %struct.__pthread_mutex_s }
%struct.__pthread_mutex_s = type { i32, i32, i32, i32, i32, i16, i16, %struct.__pthread_internal_list }
%struct.__pthread_internal_list = type { ptr, ptr }
%struct.dt_lua_state_t = type { i32 }
%struct.dt_sys_resources_t = type { i64, i64, ptr, ptr, i32 }
%struct.dt_backthumb_t = type { double, double, i32, i32, i32, i32 }
%struct.dt_gimp_t = type { i32, ptr, ptr, i32, i32 }
%struct.avifImage = type { i32, i32, i32, i32, i32, i32, [3 x ptr], [3 x i32], i32, i32, ptr, i32, i32, i32, %struct.avifRWData, i16, i16, i16, i32, %struct.avifPixelAspectRatioBox, %struct.avifCleanApertureBox, %struct.avifImageRotation, %struct.avifImageMirror, %struct.avifRWData, %struct.avifRWData }
%struct.avifPixelAspectRatioBox = type { i32, i32 }
%struct.avifCleanApertureBox = type { i32, i32, i32, i32, i32, i32, i32, i32 }
%struct.avifImageRotation = type { i8 }
%struct.avifImageMirror = type { i8 }
%struct.avifRWData = type { ptr, i64 }
%struct.dt_colorspaces_cicp_t = type { i32, i32, i32 }

@darktable = external global %struct.darktable_t, align 8
@.str.5 = private unnamed_addr constant [70 x i8] c"[avif read profile] failed to create decoder or image struct for '%s'\00", align 1
@.str.6 = private unnamed_addr constant [45 x i8] c"[avif read profile] failed to parse '%s': %s\00", align 1
@.str.7 = private unnamed_addr constant [71 x i8] c"[avif_open] overriding nclx color profile for '%s': 1/%d/%d to 1/%d/%d\00", align 1

; Function Attrs: nounwind uwtable
define i32 @dt_imageio_avif_read_profile(ptr noundef %0, ptr noundef %1, ptr noundef %2) #0 {
  %4 = alloca ptr, align 8
  %5 = alloca ptr, align 8
  %6 = alloca ptr, align 8
  %7 = alloca i32, align 4
  %8 = alloca ptr, align 8
  %9 = alloca ptr, align 8
  %10 = alloca i32, align 4
  %11 = alloca ptr, align 8
  %12 = alloca i32, align 4
  store ptr %0, ptr %4, align 8, !tbaa !11
  store ptr %1, ptr %5, align 8, !tbaa !115
  store ptr %2, ptr %6, align 8, !tbaa !117
  call void @llvm.lifetime.start.p0(i64 4, ptr %7) #7
  store i32 0, ptr %7, align 4, !tbaa !57
  %13 = load ptr, ptr %5, align 8, !tbaa !115
  store ptr null, ptr %13, align 8, !tbaa !11
  %14 = load ptr, ptr %6, align 8, !tbaa !117
  %15 = getelementptr inbounds nuw %struct.dt_colorspaces_cicp_t, ptr %14, i32 0, i32 0
  store i32 2, ptr %15, align 4, !tbaa !119
  %16 = load ptr, ptr %6, align 8, !tbaa !117
  %17 = getelementptr inbounds nuw %struct.dt_colorspaces_cicp_t, ptr %16, i32 0, i32 1
  store i32 2, ptr %17, align 4, !tbaa !121
  %18 = load ptr, ptr %6, align 8, !tbaa !117
  %19 = getelementptr inbounds nuw %struct.dt_colorspaces_cicp_t, ptr %18, i32 0, i32 2
  store i32 2, ptr %19, align 4, !tbaa !122
  call void @llvm.lifetime.start.p0(i64 8, ptr %8) #7
  %20 = call ptr @avifDecoderCreate()
  store ptr %20, ptr %8, align 8, !tbaa !17
  call void @llvm.lifetime.start.p0(i64 8, ptr %9) #7
  %21 = call ptr @avifImageCreateEmpty()
  store ptr %21, ptr %9, align 8, !tbaa !15
  call void @llvm.lifetime.start.p0(i64 4, ptr %10) #7
  %22 = load ptr, ptr %8, align 8, !tbaa !17
  %23 = icmp eq ptr %22, null
  br i1 %23, label %27, label %24

24:                                               ; preds = %3
  %25 = load ptr, ptr %9, align 8, !tbaa !15
  %26 = icmp eq ptr %25, null
  br i1 %26, label %27, label %42

27:                                               ; preds = %24, %3
  br label %28

28:                                               ; preds = %27
  %29 = load i32, ptr getelementptr inbounds nuw (%struct.darktable_t, ptr @darktable, i32 0, i32 2), align 8, !tbaa !19
  %30 = and i32 262144, %29
  %31 = icmp ne i32 %30, 0
  br i1 %31, label %32, label %39

32:                                               ; preds = %28
  %33 = load i32, ptr getelementptr inbounds nuw (%struct.darktable_t, ptr @darktable, i32 0, i32 2), align 8, !tbaa !19
  %34 = xor i32 %33, -1
  %35 = and i32 0, %34
  %36 = icmp ne i32 %35, 0
  br i1 %36, label %39, label %37

37:                                               ; preds = %32
  %38 = load ptr, ptr %4, align 8, !tbaa !11
  call void (ptr, ...) @dt_print_ext(ptr noundef @.str.5, ptr noundef %38)
  br label %39

39:                                               ; preds = %37, %32, %28
  br label %40

40:                                               ; preds = %39
  br label %41

41:                                               ; preds = %40
  br label %175

42:                                               ; preds = %24
  %43 = load ptr, ptr %8, align 8, !tbaa !17
  %44 = load ptr, ptr %9, align 8, !tbaa !15
  %45 = load ptr, ptr %4, align 8, !tbaa !11
  %46 = call i32 @avifDecoderReadFile(ptr noundef %43, ptr noundef %44, ptr noundef %45)
  store i32 %46, ptr %10, align 4, !tbaa !57
  %47 = load i32, ptr %10, align 4, !tbaa !57
  %48 = icmp ne i32 %47, 0
  br i1 %48, label %49, label %66

49:                                               ; preds = %42
  br label %50

50:                                               ; preds = %49
  %51 = load i32, ptr getelementptr inbounds nuw (%struct.darktable_t, ptr @darktable, i32 0, i32 2), align 8, !tbaa !19
  %52 = and i32 262144, %51
  %53 = icmp ne i32 %52, 0
  br i1 %53, label %54, label %63

54:                                               ; preds = %50
  %55 = load i32, ptr getelementptr inbounds nuw (%struct.darktable_t, ptr @darktable, i32 0, i32 2), align 8, !tbaa !19
  %56 = xor i32 %55, -1
  %57 = and i32 0, %56
  %58 = icmp ne i32 %57, 0
  br i1 %58, label %63, label %59

59:                                               ; preds = %54
  %60 = load ptr, ptr %4, align 8, !tbaa !11
  %61 = load i32, ptr %10, align 4, !tbaa !57
  %62 = call ptr @avifResultToString(i32 noundef %61)
  call void (ptr, ...) @dt_print_ext(ptr noundef @.str.6, ptr noundef %60, ptr noundef %62)
  br label %63

63:                                               ; preds = %59, %54, %50
  br label %64

64:                                               ; preds = %63
  br label %65

65:                                               ; preds = %64
  br label %175

66:                                               ; preds = %42
  %67 = load ptr, ptr %9, align 8, !tbaa !15
  %68 = getelementptr inbounds nuw %struct.avifImage, ptr %67, i32 0, i32 14
  store ptr %68, ptr %11, align 8, !tbaa !76
  %69 = load ptr, ptr %11, align 8, !tbaa !76
  %70 = getelementptr inbounds nuw %struct.avifRWData, ptr %69, i32 0, i32 1
  %71 = load i64, ptr %70, align 8, !tbaa !78
  %72 = icmp ne i64 %71, 0
  br i1 %72, label %73, label %101

73:                                               ; preds = %66
  %74 = load ptr, ptr %11, align 8, !tbaa !76
  %75 = getelementptr inbounds nuw %struct.avifRWData, ptr %74, i32 0, i32 0
  %76 = load ptr, ptr %75, align 8, !tbaa !81
  %77 = icmp ne ptr %76, null
  br i1 %77, label %78, label %101

78:                                               ; preds = %73
  %79 = load ptr, ptr %11, align 8, !tbaa !76
  %80 = getelementptr inbounds nuw %struct.avifRWData, ptr %79, i32 0, i32 1
  %81 = load i64, ptr %80, align 8, !tbaa !78
  %82 = call noalias ptr @g_try_malloc0(i64 noundef %81) #8
  %83 = load ptr, ptr %5, align 8, !tbaa !115
  store ptr %82, ptr %83, align 8, !tbaa !11
  %84 = load ptr, ptr %5, align 8, !tbaa !115
  %85 = load ptr, ptr %84, align 8, !tbaa !11
  %86 = icmp ne ptr %85, null
  br i1 %86, label %87, label %100

87:                                               ; preds = %78
  %88 = load ptr, ptr %5, align 8, !tbaa !115
  %89 = load ptr, ptr %88, align 8, !tbaa !11
  %90 = load ptr, ptr %11, align 8, !tbaa !76
  %91 = getelementptr inbounds nuw %struct.avifRWData, ptr %90, i32 0, i32 0
  %92 = load ptr, ptr %91, align 8, !tbaa !81
  %93 = load ptr, ptr %11, align 8, !tbaa !76
  %94 = getelementptr inbounds nuw %struct.avifRWData, ptr %93, i32 0, i32 1
  %95 = load i64, ptr %94, align 8, !tbaa !78
  call void @llvm.memcpy.p0.p0.i64(ptr align 1 %89, ptr align 1 %92, i64 %95, i1 false)
  %96 = load ptr, ptr %11, align 8, !tbaa !76
  %97 = getelementptr inbounds nuw %struct.avifRWData, ptr %96, i32 0, i32 1
  %98 = load i64, ptr %97, align 8, !tbaa !78
  %99 = trunc i64 %98 to i32
  store i32 %99, ptr %7, align 4, !tbaa !57
  br label %100

100:                                              ; preds = %87, %78
  br label %174

101:                                              ; preds = %73, %66
  %102 = load ptr, ptr %9, align 8, !tbaa !15
  %103 = getelementptr inbounds nuw %struct.avifImage, ptr %102, i32 0, i32 15
  %104 = load i16, ptr %103, align 8, !tbaa !123
  %105 = zext i16 %104 to i32
  %106 = load ptr, ptr %6, align 8, !tbaa !117
  %107 = getelementptr inbounds nuw %struct.dt_colorspaces_cicp_t, ptr %106, i32 0, i32 0
  store i32 %105, ptr %107, align 4, !tbaa !119
  %108 = load ptr, ptr %9, align 8, !tbaa !15
  %109 = getelementptr inbounds nuw %struct.avifImage, ptr %108, i32 0, i32 16
  %110 = load i16, ptr %109, align 2, !tbaa !124
  %111 = zext i16 %110 to i32
  %112 = load ptr, ptr %6, align 8, !tbaa !117
  %113 = getelementptr inbounds nuw %struct.dt_colorspaces_cicp_t, ptr %112, i32 0, i32 1
  store i32 %111, ptr %113, align 4, !tbaa !121
  %114 = load ptr, ptr %9, align 8, !tbaa !15
  %115 = getelementptr inbounds nuw %struct.avifImage, ptr %114, i32 0, i32 17
  %116 = load i16, ptr %115, align 4, !tbaa !125
  %117 = zext i16 %116 to i32
  %118 = load ptr, ptr %6, align 8, !tbaa !117
  %119 = getelementptr inbounds nuw %struct.dt_colorspaces_cicp_t, ptr %118, i32 0, i32 2
  store i32 %117, ptr %119, align 4, !tbaa !122
  %120 = load ptr, ptr %9, align 8, !tbaa !15
  %121 = getelementptr inbounds nuw %struct.avifImage, ptr %120, i32 0, i32 15
  %122 = load i16, ptr %121, align 8, !tbaa !123
  %123 = zext i16 %122 to i32
  %124 = icmp eq i32 %123, 1
  br i1 %124, label %125, label %173

125:                                              ; preds = %101
  call void @llvm.lifetime.start.p0(i64 4, ptr %12) #7
  store i32 0, ptr %12, align 4, !tbaa !57
  %126 = load ptr, ptr %9, align 8, !tbaa !15
  %127 = getelementptr inbounds nuw %struct.avifImage, ptr %126, i32 0, i32 16
  %128 = load i16, ptr %127, align 2, !tbaa !124
  %129 = zext i16 %128 to i32
  %130 = icmp eq i32 %129, 4
  br i1 %130, label %131, label %140

131:                                              ; preds = %125
  %132 = load ptr, ptr %9, align 8, !tbaa !15
  %133 = getelementptr inbounds nuw %struct.avifImage, ptr %132, i32 0, i32 17
  %134 = load i16, ptr %133, align 4, !tbaa !125
  %135 = zext i16 %134 to i32
  %136 = icmp eq i32 %135, 1
  br i1 %136, label %137, label %140

137:                                              ; preds = %131
  %138 = load ptr, ptr %6, align 8, !tbaa !117
  %139 = getelementptr inbounds nuw %struct.dt_colorspaces_cicp_t, ptr %138, i32 0, i32 1
  store i32 1, ptr %139, align 4, !tbaa !121
  store i32 1, ptr %12, align 4, !tbaa !57
  br label %140

140:                                              ; preds = %137, %131, %125
  %141 = load i32, ptr %12, align 4, !tbaa !57
  %142 = icmp ne i32 %141, 0
  br i1 %142, label %143, label %172

143:                                              ; preds = %140
  br label %144

144:                                              ; preds = %143
  %145 = load i32, ptr getelementptr inbounds nuw (%struct.darktable_t, ptr @darktable, i32 0, i32 2), align 8, !tbaa !19
  %146 = and i32 262144, %145
  %147 = icmp ne i32 %146, 0
  br i1 %147, label %148, label %169

148:                                              ; preds = %144
  %149 = load i32, ptr getelementptr inbounds nuw (%struct.darktable_t, ptr @darktable, i32 0, i32 2), align 8, !tbaa !19
  %150 = xor i32 %149, -1
  %151 = and i32 0, %150
  %152 = icmp ne i32 %151, 0
  br i1 %152, label %169, label %153

153:                                              ; preds = %148
  %154 = load ptr, ptr %4, align 8, !tbaa !11
  %155 = load ptr, ptr %9, align 8, !tbaa !15
  %156 = getelementptr inbounds nuw %struct.avifImage, ptr %155, i32 0, i32 16
  %157 = load i16, ptr %156, align 2, !tbaa !124
  %158 = zext i16 %157 to i32
  %159 = load ptr, ptr %9, align 8, !tbaa !15
  %160 = getelementptr inbounds nuw %struct.avifImage, ptr %159, i32 0, i32 17
  %161 = load i16, ptr %160, align 4, !tbaa !125
  %162 = zext i16 %161 to i32
  %163 = load ptr, ptr %6, align 8, !tbaa !117
  %164 = getelementptr inbounds nuw %struct.dt_colorspaces_cicp_t, ptr %163, i32 0, i32 1
  %165 = load i32, ptr %164, align 4, !tbaa !121
  %166 = load ptr, ptr %6, align 8, !tbaa !117
  %167 = getelementptr inbounds nuw %struct.dt_colorspaces_cicp_t, ptr %166, i32 0, i32 2
  %168 = load i32, ptr %167, align 4, !tbaa !122
  call void (ptr, ...) @dt_print_ext(ptr noundef @.str.7, ptr noundef %154, i32 noundef %158, i32 noundef %162, i32 noundef %165, i32 noundef %168)
  br label %169

169:                                              ; preds = %153, %148, %144
  br label %170

170:                                              ; preds = %169
  br label %171

171:                                              ; preds = %170
  br label %172

172:                                              ; preds = %171, %140
  call void @llvm.lifetime.end.p0(i64 4, ptr %12) #7
  br label %173

173:                                              ; preds = %172, %101
  br label %174

174:                                              ; preds = %173, %100
  br label %175

175:                                              ; preds = %174, %65, %41
  %176 = load ptr, ptr %9, align 8, !tbaa !15
  call void @avifImageDestroy(ptr noundef %176)
  %177 = load ptr, ptr %8, align 8, !tbaa !17
  call void @avifDecoderDestroy(ptr noundef %177)
  %178 = load i32, ptr %7, align 4, !tbaa !57
  call void @llvm.lifetime.end.p0(i64 4, ptr %10) #7
  call void @llvm.lifetime.end.p0(i64 8, ptr %9) #7
  call void @llvm.lifetime.end.p0(i64 8, ptr %8) #7
  call void @llvm.lifetime.end.p0(i64 4, ptr %7) #7
  ret i32 %178
}