; Function Attrs: nounwind uwtable
define i32 @dt_imageio_avif_read_profile(ptr noundef %0, ptr noundef writeonly captures(none) initializes((0, 8)) %1, ptr noundef writeonly captures(none) initializes((0, 12)) %2) local_unnamed_addr #0 {
  store ptr null, ptr %1, align 8, !tbaa !99
  store i32 2, ptr %2, align 4, !tbaa !100
  %4 = getelementptr inbounds nuw i8, ptr %2, i64 4
  store i32 2, ptr %4, align 4, !tbaa !102
  %5 = getelementptr inbounds nuw i8, ptr %2, i64 8
  store i32 2, ptr %5, align 4, !tbaa !103
  %6 = tail call ptr @avifDecoderCreate() #6
  %7 = tail call ptr @avifImageCreateEmpty() #6
  %8 = icmp eq ptr %6, null
  %9 = icmp eq ptr %7, null
  %or.cond = select i1 %8, i1 true, i1 %9
  br i1 %or.cond, label %10, label %14

10:                                               ; preds = %3
  %11 = load i32, ptr getelementptr inbounds nuw (i8, ptr @darktable, i64 8), align 8, !tbaa !6
  %12 = and i32 %11, 262144
  %.not54 = icmp eq i32 %12, 0
  br i1 %.not54, label %49, label %13

13:                                               ; preds = %10
  tail call void (ptr, ...) @dt_print_ext(ptr noundef nonnull @.str.5, ptr noundef %0) #6
  br label %49

14:                                               ; preds = %3
  %15 = tail call i32 @avifDecoderReadFile(ptr noundef nonnull %6, ptr noundef nonnull %7, ptr noundef %0) #6
  %.not = icmp eq i32 %15, 0
  br i1 %.not, label %21, label %16

16:                                               ; preds = %14
  %17 = load i32, ptr getelementptr inbounds nuw (i8, ptr @darktable, i64 8), align 8, !tbaa !6
  %18 = and i32 %17, 262144
  %.not53 = icmp eq i32 %18, 0
  br i1 %.not53, label %49, label %19

19:                                               ; preds = %16
  %20 = tail call ptr @avifResultToString(i32 noundef %15) #6
  tail call void (ptr, ...) @dt_print_ext(ptr noundef nonnull @.str.6, ptr noundef %0, ptr noundef %20) #6
  br label %49

21:                                               ; preds = %14
  %22 = getelementptr inbounds nuw i8, ptr %7, i64 96
  %23 = getelementptr inbounds nuw i8, ptr %7, i64 104
  %24 = load i64, ptr %23, align 8, !tbaa !67
  %.not48 = icmp eq i64 %24, 0
  br i1 %.not48, label %33, label %25

25:                                               ; preds = %21
  %26 = load ptr, ptr %22, align 8, !tbaa !69
  %.not49 = icmp eq ptr %26, null
  br i1 %.not49, label %33, label %27

27:                                               ; preds = %25
  %28 = tail call noalias ptr @g_try_malloc0(i64 noundef %24) #7
  store ptr %28, ptr %1, align 8, !tbaa !99
  %.not52 = icmp eq ptr %28, null
  br i1 %.not52, label %49, label %29

29:                                               ; preds = %27
  %30 = load ptr, ptr %22, align 8, !tbaa !69
  %31 = load i64, ptr %23, align 8, !tbaa !67
  tail call void @llvm.memcpy.p0.p0.i64(ptr nonnull align 1 %28, ptr align 1 %30, i64 %31, i1 false)
  %32 = trunc i64 %31 to i32
  br label %49

33:                                               ; preds = %25, %21
  %34 = getelementptr inbounds nuw i8, ptr %7, i64 112
  %35 = load i16, ptr %34, align 8, !tbaa !104
  %36 = zext i16 %35 to i32
  store i32 %36, ptr %2, align 4, !tbaa !100
  %37 = getelementptr inbounds nuw i8, ptr %7, i64 114
  %38 = load i16, ptr %37, align 2, !tbaa !105
  %39 = zext i16 %38 to i32
  store i32 %39, ptr %4, align 4, !tbaa !102
  %40 = getelementptr inbounds nuw i8, ptr %7, i64 116
  %41 = load i16, ptr %40, align 4, !tbaa !106
  %42 = zext i16 %41 to i32
  store i32 %42, ptr %5, align 4, !tbaa !103
  %43 = icmp eq i16 %35, 1
  %44 = icmp eq i16 %38, 4
  %or.cond55 = select i1 %43, i1 %44, i1 false
  %45 = icmp eq i16 %41, 1
  %or.cond56 = select i1 %or.cond55, i1 %45, i1 false
  br i1 %or.cond56, label %.critedge, label %49

.critedge:                                        ; preds = %33
  store i32 1, ptr %4, align 4, !tbaa !102
  %46 = load i32, ptr getelementptr inbounds nuw (i8, ptr @darktable, i64 8), align 8, !tbaa !6
  %47 = and i32 %46, 262144
  %.not51 = icmp eq i32 %47, 0
  br i1 %.not51, label %49, label %48

48:                                               ; preds = %.critedge
  tail call void (ptr, ...) @dt_print_ext(ptr noundef nonnull @.str.7, ptr noundef %0, i32 noundef %39, i32 noundef %42, i32 noundef 1, i32 noundef %42) #6
  br label %49

49:                                               ; preds = %48, %.critedge, %29, %27, %33, %16, %19, %10, %13
  %.042 = phi i32 [ 0, %13 ], [ 0, %10 ], [ 0, %19 ], [ 0, %16 ], [ %32, %29 ], [ 0, %27 ], [ 0, %33 ], [ 0, %.critedge ], [ 0, %48 ]
  tail call void @avifImageDestroy(ptr noundef %7) #6
  tail call void @avifDecoderDestroy(ptr noundef %6) #6
  ret i32 %.042
}